; Function Attrs: nounwind uwtable
define dso_local i64 @rdbSaveFunctions(ptr noundef %0) local_unnamed_addr #0 {
  %2 = alloca i8, align 1
  %3 = tail call ptr @functionsLibGet() #23
  %4 = tail call ptr @dictGetIterator(ptr noundef %3) #23
  %.not.i.i = icmp eq ptr %0, null
  %5 = getelementptr inbounds nuw i8, ptr %0, i64 48
  %6 = getelementptr inbounds nuw i8, ptr %0, i64 64
  %7 = getelementptr inbounds nuw i8, ptr %0, i64 32
  %8 = getelementptr inbounds nuw i8, ptr %0, i64 8
  %9 = getelementptr inbounds nuw i8, ptr %0, i64 56
  br i1 %.not.i.i, label %.split.us, label %.split

.split.us:                                        ; preds = %1, %sdslen.exit.us
  %.016.us = phi i64 [ %40, %sdslen.exit.us ], [ 0, %1 ]
  %10 = tail call ptr @dictNext(ptr noundef %4) #23
  %.not.us = icmp eq ptr %10, null
  br i1 %.not.us, label %.split27.us, label %11

11:                                               ; preds = %.split.us
  %12 = add nuw nsw i64 %.016.us, 1
  %13 = tail call ptr @dictGetVal(ptr noundef nonnull %10) #23
  %14 = getelementptr inbounds nuw i8, ptr %13, i64 24
  %15 = load ptr, ptr %14, align 8, !tbaa !154
  %16 = getelementptr inbounds i8, ptr %15, i64 -1
  %17 = load i8, ptr %16, align 1, !tbaa !59
  %18 = zext i8 %17 to i32
  %19 = and i32 %18, 7
  switch i32 %19, label %sdslen.exit.us [
    i32 0, label %35
    i32 1, label %31
    i32 2, label %27
    i32 3, label %23
    i32 4, label %20
  ]

20:                                               ; preds = %11
  %21 = getelementptr inbounds i8, ptr %15, i64 -17
  %22 = load i64, ptr %21, align 1, !tbaa !61
  br label %sdslen.exit.us

23:                                               ; preds = %11
  %24 = getelementptr inbounds i8, ptr %15, i64 -9
  %25 = load i32, ptr %24, align 1, !tbaa !51
  %26 = zext i32 %25 to i64
  br label %sdslen.exit.us

27:                                               ; preds = %11
  %28 = getelementptr inbounds i8, ptr %15, i64 -5
  %29 = load i16, ptr %28, align 1, !tbaa !67
  %30 = zext i16 %29 to i64
  br label %sdslen.exit.us

31:                                               ; preds = %11
  %32 = getelementptr inbounds i8, ptr %15, i64 -3
  %33 = load i8, ptr %32, align 1, !tbaa !59
  %34 = zext i8 %33 to i64
  br label %sdslen.exit.us

35:                                               ; preds = %11
  %36 = lshr i32 %18, 3
  %37 = zext nneg i32 %36 to i64
  br label %sdslen.exit.us

sdslen.exit.us:                                   ; preds = %35, %31, %27, %23, %20, %11
  %.0.i.us = phi i64 [ %22, %20 ], [ %26, %23 ], [ %30, %27 ], [ %34, %31 ], [ %37, %35 ], [ 0, %11 ]
  %38 = tail call i64 @rdbSaveRawString(ptr noundef null, ptr noundef nonnull %15, i64 noundef %.0.i.us)
  %39 = icmp slt i64 %38, 0
  %40 = add nuw nsw i64 %12, %38
  br i1 %39, label %.split27.us, label %.split.us

.split:                                           ; preds = %1, %sdslen.exit
  %.016 = phi i64 [ %89, %sdslen.exit ], [ 0, %1 ]
  %41 = call ptr @dictNext(ptr noundef %4) #23
  %.not = icmp eq ptr %41, null
  br i1 %.not, label %.split27.us, label %42

42:                                               ; preds = %.split
  call void @llvm.lifetime.start.p0(i64 1, ptr nonnull %2)
  store i8 -11, ptr %2, align 1, !tbaa !59
  %43 = load i64, ptr %5, align 8, !tbaa !53
  %44 = and i64 %43, 6
  %.not.i.i.i = icmp eq i64 %44, 0
  br i1 %.not.i.i.i, label %.preheader.i.i.i, label %rdbSaveType.exit.thread

.preheader.i.i.i:                                 ; preds = %42, %56
  %.02539.i.i.i = phi i64 [ %58, %56 ], [ 1, %42 ]
  %.02738.i.i.i = phi ptr [ %57, %56 ], [ %2, %42 ]
  %45 = load i64, ptr %6, align 8, !tbaa !55
  %.not32.not.i.i.i = icmp eq i64 %45, 0
  %46 = call i64 @llvm.umin.i64(i64 %45, i64 %.02539.i.i.i)
  %47 = select i1 %.not32.not.i.i.i, i64 %.02539.i.i.i, i64 %46
  %48 = load ptr, ptr %7, align 8, !tbaa !56
  %.not33.i.i.i = icmp eq ptr %48, null
  br i1 %.not33.i.i.i, label %50, label %49

49:                                               ; preds = %.preheader.i.i.i
  call void %48(ptr noundef nonnull %0, ptr noundef %.02738.i.i.i, i64 noundef %47) #23
  br label %50

50:                                               ; preds = %49, %.preheader.i.i.i
  %51 = load ptr, ptr %8, align 8, !tbaa !57
  %52 = call i64 %51(ptr noundef nonnull %0, ptr noundef %.02738.i.i.i, i64 noundef %47) #23
  %53 = icmp eq i64 %52, 0
  br i1 %53, label %.thread.i.i.i, label %56

.thread.i.i.i:                                    ; preds = %50
  %54 = load i64, ptr %5, align 8, !tbaa !53
  %55 = or i64 %54, 2
  store i64 %55, ptr %5, align 8, !tbaa !53
  br label %rdbSaveType.exit.thread

56:                                               ; preds = %50
  %57 = getelementptr inbounds nuw i8, ptr %.02738.i.i.i, i64 %47
  %58 = sub i64 %.02539.i.i.i, %47
  %59 = load i64, ptr %9, align 8, !tbaa !58
  %60 = add i64 %59, %47
  store i64 %60, ptr %9, align 8, !tbaa !58
  %.not31.i.i.i = icmp eq i64 %58, 0
  br i1 %.not31.i.i.i, label %.loopexit, label %.preheader.i.i.i

rdbSaveType.exit.thread:                          ; preds = %42, %.thread.i.i.i
  call void @llvm.lifetime.end.p0(i64 1, ptr nonnull %2)
  br label %.split27.us

.loopexit:                                        ; preds = %56
  call void @llvm.lifetime.end.p0(i64 1, ptr nonnull %2)
  %61 = add nuw nsw i64 %.016, 1
  %62 = call ptr @dictGetVal(ptr noundef nonnull %41) #23
  %63 = getelementptr inbounds nuw i8, ptr %62, i64 24
  %64 = load ptr, ptr %63, align 8, !tbaa !154
  %65 = getelementptr inbounds i8, ptr %64, i64 -1
  %66 = load i8, ptr %65, align 1, !tbaa !59
  %67 = zext i8 %66 to i32
  %68 = and i32 %67, 7
  switch i32 %68, label %sdslen.exit [
    i32 0, label %69
    i32 1, label %72
    i32 2, label %76
    i32 3, label %80
    i32 4, label %84
  ]

69:                                               ; preds = %.loopexit
  %70 = lshr i32 %67, 3
  %71 = zext nneg i32 %70 to i64
  br label %sdslen.exit

72:                                               ; preds = %.loopexit
  %73 = getelementptr inbounds i8, ptr %64, i64 -3
  %74 = load i8, ptr %73, align 1, !tbaa !59
  %75 = zext i8 %74 to i64
  br label %sdslen.exit

76:                                               ; preds = %.loopexit
  %77 = getelementptr inbounds i8, ptr %64, i64 -5
  %78 = load i16, ptr %77, align 1, !tbaa !67
  %79 = zext i16 %78 to i64
  br label %sdslen.exit

80:                                               ; preds = %.loopexit
  %81 = getelementptr inbounds i8, ptr %64, i64 -9
  %82 = load i32, ptr %81, align 1, !tbaa !51
  %83 = zext i32 %82 to i64
  br label %sdslen.exit

84:                                               ; preds = %.loopexit
  %85 = getelementptr inbounds i8, ptr %64, i64 -17
  %86 = load i64, ptr %85, align 1, !tbaa !61
  br label %sdslen.exit

sdslen.exit:                                      ; preds = %.loopexit, %69, %72, %76, %80, %84
  %.0.i = phi i64 [ %86, %84 ], [ %83, %80 ], [ %79, %76 ], [ %75, %72 ], [ %71, %69 ], [ 0, %.loopexit ]
  %87 = call i64 @rdbSaveRawString(ptr noundef nonnull %0, ptr noundef nonnull %64, i64 noundef %.0.i)
  %88 = icmp slt i64 %87, 0
  %89 = add nuw nsw i64 %61, %87
  br i1 %88, label %.split27.us, label %.split

.split27.us:                                      ; preds = %sdslen.exit, %.split, %sdslen.exit.us, %.split.us, %rdbSaveType.exit.thread
  %.015 = phi i64 [ -1, %rdbSaveType.exit.thread ], [ %.016.us, %.split.us ], [ -1, %sdslen.exit.us ], [ %.016, %.split ], [ -1, %sdslen.exit ]
  call void @dictReleaseIterator(ptr noundef %4) #23
  ret i64 %.015
}